target datalayout = "e-m:e-p270:32:32-p271:32:32-p272:64:64-i64:64-i128:128-f80:128-n8:16:32:64-S128"
target triple = "x86_64-pc-linux-gnu"

%"struct.open_spiel::gin_rummy::GinRummyUtils" = type { i32, i32, i32, i32, %"struct.open_spiel::gin_rummy::SuitComparator", %"struct.open_spiel::gin_rummy::RankComparator", %"class.std::map", %"class.std::map.0" }
%"struct.open_spiel::gin_rummy::SuitComparator" = type { i32 }
%"struct.open_spiel::gin_rummy::RankComparator" = type { i32 }
%"class.std::map" = type { %"class.std::_Rb_tree" }
%"class.std::_Rb_tree" = type { %"struct.std::_Rb_tree<int, std::pair<const int, std::vector<int>>, std::_Select1st<std::pair<const int, std::vector<int>>>, std::less<int>>::_Rb_tree_impl" }
%"struct.std::_Rb_tree<int, std::pair<const int, std::vector<int>>, std::_Select1st<std::pair<const int, std::vector<int>>>, std::less<int>>::_Rb_tree_impl" = type { [8 x i8], %"struct.std::_Rb_tree_header" }
%"struct.std::_Rb_tree_header" = type { %"struct.std::_Rb_tree_node_base", i64 }
%"struct.std::_Rb_tree_node_base" = type { i32, ptr, ptr, ptr }
%"class.std::map.0" = type { %"class.std::_Rb_tree.1" }
%"class.std::_Rb_tree.1" = type { %"struct.std::_Rb_tree<std::vector<int>, std::pair<const std::vector<int>, int>, std::_Select1st<std::pair<const std::vector<int>, int>>, std::less<std::vector<int>>>::_Rb_tree_impl" }
%"struct.std::_Rb_tree<std::vector<int>, std::pair<const std::vector<int>, int>, std::_Select1st<std::pair<const std::vector<int>, int>>, std::less<std::vector<int>>>::_Rb_tree_impl" = type { [8 x i8], %"struct.std::_Rb_tree_header" }

; Function Attrs: mustprogress nounwind uwtable
define linkonce_odr void @_ZN10open_spiel9gin_rummy14RankComparatorC2Ei(ptr noundef nonnull align 4 dereferenceable(4) %0, i32 noundef %1) unnamed_addr #5 comdat align 2 {
  %3 = alloca ptr, align 8
  %4 = alloca i32, align 4
  store ptr %0, ptr %3, align 8
  store i32 %1, ptr %4, align 4
  %5 = load ptr, ptr %3, align 8
  %6 = getelementptr inbounds nuw %"struct.open_spiel::gin_rummy::RankComparator", ptr %5, i32 0, i32 0
  %7 = load i32, ptr %4, align 4
  store i32 %7, ptr %6, align 4
  ret void
}

; Function Attrs: mustprogress nounwind uwtable
define linkonce_odr void @_ZN10open_spiel9gin_rummy14SuitComparatorC2Ei(ptr noundef nonnull align 4 dereferenceable(4) %0, i32 noundef %1) unnamed_addr #5 comdat align 2 {
  %3 = alloca ptr, align 8
  %4 = alloca i32, align 4
  store ptr %0, ptr %3, align 8
  store i32 %1, ptr %4, align 4
  %5 = load ptr, ptr %3, align 8
  %6 = getelementptr inbounds nuw %"struct.open_spiel::gin_rummy::SuitComparator", ptr %5, i32 0, i32 0
  %7 = load i32, ptr %4, align 4
  store i32 %7, ptr %6, align 4
  ret void
}

; Function Attrs: mustprogress uwtable
define void @_ZN10open_spiel9gin_rummy13GinRummyUtilsC2Eiii(ptr noundef nonnull align 8 dereferenceable(120) %0, i32 noundef %1, i32 noundef %2, i32 noundef %3) unnamed_addr #4 align 2 personality ptr @__gxx_personality_v0 {
  %5 = alloca ptr, align 8
  %6 = alloca i32, align 4
  %7 = alloca i32, align 4
  %8 = alloca i32, align 4
  %9 = alloca ptr, align 8
  %10 = alloca i32, align 4
  store ptr %0, ptr %5, align 8
  store i32 %1, ptr %6, align 4
  store i32 %2, ptr %7, align 4
  store i32 %3, ptr %8, align 4
  %11 = load ptr, ptr %5, align 8
  %12 = getelementptr inbounds nuw %"struct.open_spiel::gin_rummy::GinRummyUtils", ptr %11, i32 0, i32 0
  %13 = load i32, ptr %6, align 4
  store i32 %13, ptr %12, align 8
  %14 = getelementptr inbounds nuw %"struct.open_spiel::gin_rummy::GinRummyUtils", ptr %11, i32 0, i32 1
  %15 = load i32, ptr %7, align 4
  store i32 %15, ptr %14, align 4
  %16 = getelementptr inbounds nuw %"struct.open_spiel::gin_rummy::GinRummyUtils", ptr %11, i32 0, i32 2
  %17 = load i32, ptr %6, align 4
  %18 = load i32, ptr %7, align 4
  %19 = mul nsw i32 %17, %18
  store i32 %19, ptr %16, align 8
  %20 = getelementptr inbounds nuw %"struct.open_spiel::gin_rummy::GinRummyUtils", ptr %11, i32 0, i32 3
  %21 = load i32, ptr %8, align 4
  store i32 %21, ptr %20, align 4
  %22 = getelementptr inbounds nuw %"struct.open_spiel::gin_rummy::GinRummyUtils", ptr %11, i32 0, i32 4
  %23 = load i32, ptr %6, align 4
  call void @_ZN10open_spiel9gin_rummy14SuitComparatorC2Ei(ptr noundef nonnull align 4 dereferenceable(4) %22, i32 noundef %23)
  %24 = getelementptr inbounds nuw %"struct.open_spiel::gin_rummy::GinRummyUtils", ptr %11, i32 0, i32 5
  %25 = load i32, ptr %6, align 4
  call void @_ZN10open_spiel9gin_rummy14RankComparatorC2Ei(ptr noundef nonnull align 4 dereferenceable(4) %24, i32 noundef %25)
  %26 = getelementptr inbounds nuw %"struct.open_spiel::gin_rummy::GinRummyUtils", ptr %11, i32 0, i32 6
  call void @_ZNK10open_spiel9gin_rummy13GinRummyUtils17BuildIntToMeldMapEv(ptr dead_on_unwind writable sret(%"class.std::map") align 8 %26, ptr noundef nonnull align 8 dereferenceable(120) %11)
  %27 = getelementptr inbounds nuw %"struct.open_spiel::gin_rummy::GinRummyUtils", ptr %11, i32 0, i32 7
  invoke void @_ZNK10open_spiel9gin_rummy13GinRummyUtils17BuildMeldToIntMapEv(ptr dead_on_unwind writable sret(%"class.std::map.0") align 8 %27, ptr noundef nonnull align 8 dereferenceable(120) %11)
          to label %28 unwind label %29

28:                                               ; preds = %4
  ret void

29:                                               ; preds = %4
  %30 = landingpad { ptr, i32 }
          cleanup
  %31 = extractvalue { ptr, i32 } %30, 0
  store ptr %31, ptr %9, align 8
  %32 = extractvalue { ptr, i32 } %30, 1
  store i32 %32, ptr %10, align 4
  call void @_ZNSt3mapIiSt6vectorIiSaIiEESt4lessIiESaISt4pairIKiS2_EEED2Ev(ptr noundef nonnull align 8 dereferenceable(48) %26) #3
  br label %33

33:                                               ; preds = %29
  %34 = load ptr, ptr %9, align 8
  %35 = load i32, ptr %10, align 4
  %36 = insertvalue { ptr, i32 } poison, ptr %34, 0
  %37 = insertvalue { ptr, i32 } %36, i32 %35, 1
  resume { ptr, i32 } %37
}