; Function Attrs: mustprogress uwtable
define void @_ZN10open_spiel9gin_rummy13GinRummyUtilsC2Eiii(ptr noundef nonnull align 8 dereferenceable(120) %0, i32 noundef %1, i32 noundef %2, i32 noundef %3) unnamed_addr #3 align 2 personality ptr @__gxx_personality_v0 {
  store i32 %1, ptr %0, align 8
  %5 = getelementptr inbounds nuw i8, ptr %0, i64 4
  store i32 %2, ptr %5, align 4
  %6 = getelementptr inbounds nuw i8, ptr %0, i64 8
  %7 = mul nsw i32 %2, %1
  store i32 %7, ptr %6, align 8
  %8 = getelementptr inbounds nuw i8, ptr %0, i64 12
  store i32 %3, ptr %8, align 4
  %9 = getelementptr inbounds nuw i8, ptr %0, i64 16
  store i32 %1, ptr %9, align 8
  %10 = getelementptr inbounds nuw i8, ptr %0, i64 20
  store i32 %1, ptr %10, align 4
  %11 = getelementptr inbounds nuw i8, ptr %0, i64 24
  tail call void @_ZNK10open_spiel9gin_rummy13GinRummyUtils17BuildIntToMeldMapEv(ptr dead_on_unwind nonnull writable sret(%"class.std::map") align 8 %11, ptr noundef nonnull align 8 dereferenceable(120) %0)
  %12 = getelementptr inbounds nuw i8, ptr %0, i64 72
  invoke void @_ZNK10open_spiel9gin_rummy13GinRummyUtils17BuildMeldToIntMapEv(ptr dead_on_unwind nonnull writable sret(%"class.std::map.0") align 8 %12, ptr noundef nonnull align 8 dereferenceable(120) %0)
          to label %13 unwind label %14

13:                                               ; preds = %4
  ret void

14:                                               ; preds = %4
  %15 = landingpad { ptr, i32 }
          cleanup
  tail call void @_ZNSt3mapIiSt6vectorIiSaIiEESt4lessIiESaISt4pairIKiS2_EEED2Ev(ptr noundef nonnull align 8 dereferenceable(48) %11) #23
  resume { ptr, i32 } %15
}